(dp0
Vn-n-1
p1
ccopy_reg
_reconstructor
p2
(cStudent
Student
p3
c__builtin__
object
p4
Ntp5
Rp6
(dp7
S'operators'
p8
(dp9
S'+'
p10
(dp11
S'range'
p12
(lp13
I0
aI10
asS'lastIncrement'
p14
I1
sS'level'
p15
(lp16
I1
aI1
asssS'studentID'
p17
g1
sS'name'
p18
Vn n
p19
sbsVn-n-0
p20
g2
(g3
g4
Ntp21
Rp22
(dp23
g8
(dp24
S'+'
p25
(dp26
S'range'
p27
(lp28
I0
aI10
asS'lastIncrement'
p29
I0
sS'level'
p30
(lp31
I0
aI0
asssg17
g20
sg18
Vn n
p32
sbsVakjsdh-askjdhsad-0
p33
g2
(g3
g4
Ntp34
Rp35
(dp36
g8
(dp37
S'+'
p38
(dp39
S'range'
p40
(lp41
I0
aI10
asS'lastIncrement'
p42
I0
sS'level'
p43
(lp44
I0
aI0
asssg17
g33
sg18
Vakjsdh askjdhsad
p45
sbsVjahsdgahsgd-asjhdgjahsdgjads-0
p46
g2
(g3
g4
Ntp47
Rp48
(dp49
g8
(dp50
S'+'
p51
(dp52
S'range'
p53
(lp54
I0
aI10
asS'lastIncrement'
p55
I0
sS'level'
p56
(lp57
I0
aI0
asssg17
g46
sg18
Vjahsdgahsgd asjhdgjahsdgjads
p58
sbsVjhasdjhgasjhd-jhasdjhasd-0
p59
g2
(g3
g4
Ntp60
Rp61
(dp62
g8
(dp63
S'+'
p64
(dp65
S'range'
p66
(lp67
I0
aI10
asS'lastIncrement'
p68
I0
sS'level'
p69
(lp70
I0
aI0
asssg17
g59
sg18
Vjhasdjhgasjhd jhasdjhasd
p71
sbsVahsdgja-asdjkh-0
p72
g2
(g3
g4
Ntp73
Rp74
(dp75
g8
(dp76
S'+'
p77
(dp78
S'range'
p79
(lp80
I0
aI10
asS'lastIncrement'
p81
I0
sS'level'
p82
(lp83
I0
aI0
asssg17
g72
sg18
Vahsdgja asdjkh
p84
sbsS'asjdhajsd-ajhsdgjhasd-0'
p85
g2
(g3
g4
Ntp86
Rp87
(dp88
g8
(dp89
S'+'
p90
(dp91
S'range'
p92
(lp93
I0
aI10
asS'lastIncrement'
p94
I0
sS'level'
p95
(lp96
I0
aI0
asssg17
g85
sg18
S'asjdhajsd ajhsdgjhasd'
p97
sbsVhasgdjhasgdjh-jashgdjahsgd-0
p98
g2
(g3
g4
Ntp99
Rp100
(dp101
g8
(dp102
S'+'
p103
(dp104
S'range'
p105
(lp106
I0
aI10
asS'lastIncrement'
p107
I0
sS'level'
p108
(lp109
I0
aI0
asssg17
g98
sg18
Vhasgdjhasgdjh jashgdjahsgd
p110
sbsVasdhagjdhg-shagdjhgdjhagdsjahdgajhsd-0
p111
g2
(g3
g4
Ntp112
Rp113
(dp114
g8
(dp115
S'+'
p116
(dp117
S'range'
p118
(lp119
I0
aI10
asS'lastIncrement'
p120
I0
sS'level'
p121
(lp122
I0
aI0
asssg17
g111
sg18
Vasdhagjdhg shagdjhgdjhagdsjahdgajhsd
p123
sbsVhjsadjhasgdjashgd-jhgasjhdgasjhgd-0
p124
g2
(g3
g4
Ntp125
Rp126
(dp127
g8
(dp128
S'+'
p129
(dp130
S'range'
p131
(lp132
I0
aI10
asS'lastIncrement'
p133
I1
sS'level'
p134
(lp135
I1
aI1
asssg17
g124
sg18
Vhjsadjhasgdjashgd jhgasjhdgasjhgd
p136
sbsVhasdjahsgdjashgd-jhagsdjhadjhasd-0
p137
g2
(g3
g4
Ntp138
Rp139
(dp140
g8
(dp141
S'+'
p142
(dp143
S'range'
p144
(lp145
I0
aI10
asS'lastIncrement'
p146
I0
sS'level'
p147
(lp148
I0
aI0
asssg17
g137
sg18
Vhasdjahsgdjashgd jhagsdjhadjhasd
p149
sbsVhallo-hallo-0
p150
g2
(g3
g4
Ntp151
Rp152
(dp153
g8
(dp154
S'+'
p155
(dp156
S'range'
p157
(lp158
I0
aI10
asS'lastIncrement'
p159
I2
sS'level'
p160
(lp161
I1
aI2
asssg17
g150
sg18
Vhallo hallo
p162
sbsVk-p-0
p163
g2
(g3
g4
Ntp164
Rp165
(dp166
g8
(dp167
S'+'
p168
(dp169
S'range'
p170
(lp171
I0
aI10
asS'lastIncrement'
p172
I0
sS'level'
p173
(lp174
I0
aI0
asssg17
g163
sg18
Vk p
p175
sbsS'Nieuwe-User-14'
p176
g2
(g3
g4
Ntp177
Rp178
(dp179
g8
(dp180
S'+'
p181
(dp182
S'range'
p183
(lp184
I0
aI10
asS'lastIncrement'
p185
I0
sS'level'
p186
(lp187
I0
aI0
asssg17
g176
sg18
S'Nieuwe User'
p188
sbsVik-hoi-0
p189
g2
(g3
g4
Ntp190
Rp191
(dp192
g8
(dp193
S'+'
p194
(dp195
S'range'
p196
(lp197
I0
aI10
asS'lastIncrement'
p198
I1
sS'level'
p199
(lp200
I1
aI1
asssg17
g189
sg18
Vik hoi
p201
sbsVik-ik-1
p202
g2
(g3
g4
Ntp203
Rp204
(dp205
g8
(dp206
S'+'
p207
(dp208
S'range'
p209
(lp210
I0
aI10
asS'lastIncrement'
p211
I0
sS'level'
p212
(lp213
I0
aI0
asssg17
g202
sg18
Vik ik
p214
sbsVik-ik-2
p215
g2
(g3
g4
Ntp216
Rp217
(dp218
g8
(dp219
S'+'
p220
(dp221
S'range'
p222
(lp223
I0
aI10
asS'lastIncrement'
p224
I0
sS'level'
p225
(lp226
I0
aI0
asssg17
g215
sg18
Vik ik
p227
sbsVTirza-Soute-0
p228
g2
(g3
g4
Ntp229
Rp230
(dp231
g8
(dp232
S'+'
p233
(dp234
S'range'
p235
(lp236
I0
aI10
asS'lastIncrement'
p237
I46
sS'level'
p238
(lp239
I45
aI46
assS'-'
p240
(dp241
S'range'
p242
(lp243
I0
aI10
asS'lastIncrement'
p244
I9
sS'level'
p245
(lp246
I9
aI9
asssg17
g228
sg18
VTirza Soute
p247
sbsVNew-Newwew-0
p248
g2
(g3
g4
Ntp249
Rp250
(dp251
g8
(dp252
S'+'
p253
(dp254
S'range'
p255
(lp256
I0
aI10
asS'lastIncrement'
p257
I0
sS'level'
p258
(lp259
I0
aI0
asssg17
g248
sg18
VNew Newwew
p260
sbsS'Hallo-Hallo-0'
p261
g2
(g3
g4
Ntp262
Rp263
(dp264
g8
(dp265
S'+'
p266
(dp267
S'range'
p268
(lp269
I0
aI10
asS'lastIncrement'
p270
I0
sS'level'
p271
(lp272
I0
aI0
asssg17
g261
sg18
S'Hallo Hallo'
p273
sbsVjhsdjhagdjh-ajhsgdjahsd-0
p274
g2
(g3
g4
Ntp275
Rp276
(dp277
g8
(dp278
S'+'
p279
(dp280
S'range'
p281
(lp282
I0
aI10
asS'lastIncrement'
p283
I0
sS'level'
p284
(lp285
I0
aI0
asssg17
g274
sg18
Vjhsdjhagdjh ajhsgdjahsd
p286
sbsS'Nieuwe-User-5'
p287
g2
(g3
g4
Ntp288
Rp289
(dp290
g8
(dp291
S'+'
p292
(dp293
S'range'
p294
(lp295
I0
aI10
asS'lastIncrement'
p296
I0
sS'level'
p297
(lp298
I0
aI0
asssg17
S'Nieuwe-User-5'
p299
sg18
S'Nieuwe User'
p300
sbsS'Nieuwe-User-4'
p301
g2
(g3
g4
Ntp302
Rp303
(dp304
g8
(dp305
S'+'
p306
(dp307
S'range'
p308
(lp309
I0
aI10
asS'lastIncrement'
p310
I0
sS'level'
p311
(lp312
I0
aI0
asssg17
g301
sg18
S'Nieuwe User'
p313
sbsS'Nieuwe-User-7'
p314
g2
(g3
g4
Ntp315
Rp316
(dp317
g8
(dp318
S'+'
p319
(dp320
S'range'
p321
(lp322
I0
aI10
asS'lastIncrement'
p323
I0
sS'level'
p324
(lp325
I0
aI0
asssg17
g314
sg18
S'Nieuwe User'
p326
sbsS'Nieuwe-User-6'
p327
g2
(g3
g4
Ntp328
Rp329
(dp330
g8
(dp331
S'+'
p332
(dp333
S'range'
p334
(lp335
I0
aI10
asS'lastIncrement'
p336
I0
sS'level'
p337
(lp338
I0
aI0
asssg17
g327
sg18
S'Nieuwe User'
p339
sbsS'Nieuwe-User-1'
p340
g2
(g3
g4
Ntp341
Rp342
(dp343
g8
(dp344
S'+'
p345
(dp346
S'range'
p347
(lp348
I0
aI10
asS'lastIncrement'
p349
I0
sS'level'
p350
(lp351
I0
aI0
asssg17
g340
sg18
S'Nieuwe User'
p352
sbsVNieuwe-User-0
p353
g2
(g3
g4
Ntp354
Rp355
(dp356
g8
(dp357
S'+'
p358
(dp359
S'range'
p360
(lp361
I0
aI10
asS'lastIncrement'
p362
I0
sS'level'
p363
(lp364
I0
aI0
asssg17
g353
sg18
VNieuwe User
p365
sbsS'Nieuwe-User-3'
p366
g2
(g3
g4
Ntp367
Rp368
(dp369
g8
(dp370
S'+'
p371
(dp372
S'range'
p373
(lp374
I0
aI10
asS'lastIncrement'
p375
I0
sS'level'
p376
(lp377
I0
aI0
asssg17
g366
sg18
S'Nieuwe User'
p378
sbsS'Nieuwe-User-2'
p379
g2
(g3
g4
Ntp380
Rp381
(dp382
g8
(dp383
S'+'
p384
(dp385
S'range'
p386
(lp387
I0
aI10
asS'lastIncrement'
p388
I0
sS'level'
p389
(lp390
I0
aI0
asssg17
g379
sg18
S'Nieuwe User'
p391
sbsS'Nieuwe-User-9'
p392
g2
(g3
g4
Ntp393
Rp394
(dp395
g8
(dp396
S'+'
p397
(dp398
S'range'
p399
(lp400
I0
aI10
asS'lastIncrement'
p401
I0
sS'level'
p402
(lp403
I0
aI0
asssg17
g392
sg18
S'Nieuwe User'
p404
sbsS'Nieuwe-User-8'
p405
g2
(g3
g4
Ntp406
Rp407
(dp408
g8
(dp409
S'+'
p410
(dp411
S'range'
p412
(lp413
I0
aI10
asS'lastIncrement'
p414
I0
sS'level'
p415
(lp416
I0
aI0
asssg17
g405
sg18
S'Nieuwe User'
p417
sbsVjasdhjhasgdjhsagd-hgasjdhgasjhdg-0
p418
g2
(g3
g4
Ntp419
Rp420
(dp421
g8
(dp422
S'+'
p423
(dp424
S'range'
p425
(lp426
I0
aI10
asS'lastIncrement'
p427
I1
sS'level'
p428
(lp429
I1
aI1
asssg17
g418
sg18
Vjasdhjhasgdjhsagd hgasjdhgasjhdg
p430
sbsVjahsdgajshdgasjhdg-jhgasjhdgasjdhad-0
p431
g2
(g3
g4
Ntp432
Rp433
(dp434
g8
(dp435
S'+'
p436
(dp437
S'range'
p438
(lp439
I0
aI10
asS'lastIncrement'
p440
I1
sS'level'
p441
(lp442
I1
aI1
asssg17
g431
sg18
Vjahsdgajshdgasjhdg jhgasjhdgasjdhad
p443
sbsS'Nieuwe-User-15'
p444
g2
(g3
g4
Ntp445
Rp446
(dp447
g8
(dp448
S'+'
p449
(dp450
S'range'
p451
(lp452
I0
aI10
asS'lastIncrement'
p453
I0
sS'level'
p454
(lp455
I0
aI0
asssg17
g444
sg18
S'Nieuwe User'
p456
sbsVNieuwe-Ussser-0
p457
g2
(g3
g4
Ntp458
Rp459
(dp460
g8
(dp461
S'+'
p462
(dp463
S'range'
p464
(lp465
I0
aI10
asS'lastIncrement'
p466
I0
sS'level'
p467
(lp468
I0
aI0
asssg17
g457
sg18
VNieuwe Ussser
p469
sbsVikkk-ik-0
p470
g2
(g3
g4
Ntp471
Rp472
(dp473
g8
(dp474
S'+'
p475
(dp476
S'range'
p477
(lp478
I0
aI10
asS'lastIncrement'
p479
I0
sS'level'
p480
(lp481
I0
aI0
asssg17
g470
sg18
Vikkk ik
p482
sbsS'Nieuwe-User-16'
p483
g2
(g3
g4
Ntp484
Rp485
(dp486
g8
(dp487
S'+'
p488
(dp489
S'range'
p490
(lp491
I0
aI10
asS'lastIncrement'
p492
I0
sS'level'
p493
(lp494
I0
aI0
asssg17
g483
sg18
S'Nieuwe User'
p495
sbsS'Nieuwe-User-11'
p496
g2
(g3
g4
Ntp497
Rp498
(dp499
g8
(dp500
S'+'
p501
(dp502
S'range'
p503
(lp504
I0
aI10
asS'lastIncrement'
p505
I0
sS'level'
p506
(lp507
I0
aI0
asssg17
g496
sg18
S'Nieuwe User'
p508
sbsS'Nieuwe-User-10'
p509
g2
(g3
g4
Ntp510
Rp511
(dp512
g8
(dp513
S'+'
p514
(dp515
S'range'
p516
(lp517
I0
aI10
asS'lastIncrement'
p518
I0
sS'level'
p519
(lp520
I0
aI0
asssg17
g509
sg18
S'Nieuwe User'
p521
sbsS'Nieuwe-User-12'
p522
g2
(g3
g4
Ntp523
Rp524
(dp525
g8
(dp526
S'+'
p527
(dp528
S'range'
p529
(lp530
I0
aI10
asS'lastIncrement'
p531
I0
sS'level'
p532
(lp533
I0
aI0
asssg17
g522
sg18
S'Nieuwe User'
p534
sbs.