(dp0
Vpitur-lindur-0
p1
ccopy_reg
_reconstructor
p2
(cStudent
Student
p3
c__builtin__
object
p4
Ntp5
Rp6
(dp7
S'operators'
p8
(dp9
S'+'
p10
(dp11
S'range'
p12
(lp13
I0
aI10
asS'lastIncrement'
p14
I36
sS'level'
p15
(lp16
I19
aI36
asssS'studentID'
p17
g1
sS'name'
p18
Vpitur lindur
p19
sbsVNao-Nao-0
p20
g2
(g3
g4
Ntp21
Rp22
(dp23
g8
(dp24
S'+'
p25
(dp26
S'range'
p27
(lp28
I0
aI10
asS'lastIncrement'
p29
I0
sS'level'
p30
(lp31
I0
aI0
asssg17
g20
sg18
VNao Nao
p32
sbsVNao-Nao-1
p33
g2
(g3
g4
Ntp34
Rp35
(dp36
g8
(dp37
S'+'
p38
(dp39
S'range'
p40
(lp41
I0
aI10
asS'lastIncrement'
p42
I0
sS'level'
p43
(lp44
I0
aI0
asssg17
g33
sg18
VNao Nao
p45
sbsVLina-Shakur-0
p46
g2
(g3
g4
Ntp47
Rp48
(dp49
g8
(dp50
S'+'
p51
(dp52
S'range'
p53
(lp54
I0
aI10
asS'lastIncrement'
p55
I13
sS'level'
p56
(lp57
I10
aI13
asssg17
g46
sg18
VLina Shakur
p58
sbsVTirza-Soute-0
p59
g2
(g3
g4
Ntp60
Rp61
(dp62
g8
(dp63
S'+'
p64
(dp65
S'range'
p66
(lp67
I0
aI10
asS'lastIncrement'
p68
I18
sS'level'
p69
(lp70
I12
aI18
asssg17
g59
sg18
VTirza Soute
p71
sbsVCaitlin-Lagrand-0
p72
g2
(g3
g4
Ntp73
Rp74
(dp75
g8
(dp76
S'+'
p77
(dp78
S'range'
p79
(lp80
I0
aI20
asS'lastIncrement'
p81
I65
sS'level'
p82
(lp83
I49
aI65
assS'-'
p84
(dp85
S'range'
p86
(lp87
I0
aI10
asS'lastIncrement'
p88
I23
sS'level'
p89
(lp90
I16
aI23
asssg17
g72
sg18
VCaitlin Lagrand
p91
sbs.