(dp0
S'caitlin-lagrand-0'
p1
ccopy_reg
_reconstructor
p2
(cStudent
Student
p3
c__builtin__
object
p4
Ntp5
Rp6
(dp7
S'operators'
p8
(dp9
S'+'
p10
(lp11
I3
aI3
asS'-'
p12
(lp13
I7
aI7
assS'studentID'
p14
S'caitlin-lagrand-0'
p15
sS'name'
p16
S'caitlin lagrand'
p17
sS'val_range'
p18
(lp19
I0
aI10
asbscnumpy.core.multiarray
scalar
p20
(cnumpy
dtype
p21
(S'S13'
p22
I0
I1
tp23
Rp24
(I3
S'|'
p25
NNNI13
I1
I0
tp26
bS'tirza-soute-0'
p27
tp28
Rp29
g2
(g3
g4
Ntp30
Rp31
(dp32
g8
(dp33
S'+'
p34
(lp35
I0
aI0
asS'-'
p36
(lp37
I0
aI0
assg14
g29
sg16
S' '
p38
sg18
(lp39
I0
aI10
asbs.