(dp0
cnumpy.core.multiarray
scalar
p1
(cnumpy
dtype
p2
(S'S17'
p3
I0
I1
tp4
Rp5
(I3
S'|'
p6
NNNI17
I1
I0
tp7
bS'caitlin-lagrand-0'
p8
tp9
Rp10
ccopy_reg
_reconstructor
p11
(cStudent
Student
p12
c__builtin__
object
p13
Ntp14
Rp15
(dp16
S'operators'
p17
(dp18
S'+'
p19
(lp20
I4
aI4
asS'-'
p21
(lp22
I5
aI6
assS'studentID'
p23
g1
(g2
(S'S17'
p24
I0
I1
tp25
Rp26
(I3
S'|'
p27
NNNI17
I1
I0
tp28
bS'caitlin-lagrand-0'
p29
tp30
Rp31
sS'name'
p32
S' '
p33
sS'val_range'
p34
(lp35
I0
aI10
asbsS'0'
p36
g11
(g12
g13
Ntp37
Rp38
(dp39
g17
(dp40
S'+'
p41
(lp42
I2
aI2
asS'-'
p43
(lp44
I0
aI0
assg23
S'0'
p45
sg32
S'tirza'
p46
sg34
(lp47
I0
aI10
asbsg1
(g2
(S'S13'
p48
I0
I1
tp49
Rp50
(I3
S'|'
p51
NNNI13
I1
I0
tp52
bS'leila-talha-0'
p53
tp54
Rp55
g11
(g12
g13
Ntp56
Rp57
(dp58
g17
(dp59
S'+'
p60
(lp61
I0
aI0
asS'-'
p62
(lp63
I0
aI0
assg23
g55
sg32
S' '
p64
sg34
(lp65
I0
aI10
asbsg1
(g2
(S'S13'
p66
I0
I1
tp67
Rp68
(I3
S'|'
p69
NNNI13
I1
I0
tp70
bS'tirza-soute-0'
p71
tp72
Rp73
g11
(g12
g13
Ntp74
Rp75
(dp76
g17
(dp77
S'+'
p78
(lp79
I6
aI6
asS'-'
p80
(lp81
I6
aI6
assg23
g1
(g2
(S'S13'
p82
I0
I1
tp83
Rp84
(I3
S'|'
p85
NNNI13
I1
I0
tp86
bS'tirza-soute-0'
p87
tp88
Rp89
sg32
S' '
p90
sg34
(lp91
I0
aI10
asbs.