(dp0
Vn-n-1
p1
ccopy_reg
_reconstructor
p2
(cStudent
Student
p3
c__builtin__
object
p4
Ntp5
Rp6
(dp7
S'operators'
p8
(dp9
S'+'
p10
(dp11
S'range'
p12
(lp13
I0
aI10
asS'lastIncrement'
p14
I1
sS'level'
p15
(lp16
I1
aI1
asssS'studentID'
p17
g1
sS'name'
p18
Vn n
p19
sbsVn-n-0
p20
g2
(g3
g4
Ntp21
Rp22
(dp23
g8
(dp24
S'+'
p25
(dp26
S'range'
p27
(lp28
I0
aI10
asS'lastIncrement'
p29
I0
sS'level'
p30
(lp31
I0
aI0
asssg17
g20
sg18
Vn n
p32
sbsVakjsdh-askjdhsad-0
p33
g2
(g3
g4
Ntp34
Rp35
(dp36
g8
(dp37
S'+'
p38
(dp39
S'range'
p40
(lp41
I0
aI10
asS'lastIncrement'
p42
I0
sS'level'
p43
(lp44
I0
aI0
asssg17
g33
sg18
Vakjsdh askjdhsad
p45
sbsVahsdgja-asdjkh-0
p46
g2
(g3
g4
Ntp47
Rp48
(dp49
g8
(dp50
S'+'
p51
(dp52
S'range'
p53
(lp54
I0
aI10
asS'lastIncrement'
p55
I0
sS'level'
p56
(lp57
I0
aI0
asssg17
g46
sg18
Vahsdgja asdjkh
p58
sbsS'Nieuwe-User-8'
p59
g2
(g3
g4
Ntp60
Rp61
(dp62
g8
(dp63
S'+'
p64
(dp65
S'range'
p66
(lp67
I0
aI10
asS'lastIncrement'
p68
I0
sS'level'
p69
(lp70
I0
aI0
asssg17
g59
sg18
S'Nieuwe User'
p71
sbsVhallo-hallo-0
p72
g2
(g3
g4
Ntp73
Rp74
(dp75
g8
(dp76
S'+'
p77
(dp78
S'range'
p79
(lp80
I0
aI10
asS'lastIncrement'
p81
I2
sS'level'
p82
(lp83
I1
aI2
asssg17
g72
sg18
Vhallo hallo
p84
sbsVk-p-0
p85
g2
(g3
g4
Ntp86
Rp87
(dp88
g8
(dp89
S'+'
p90
(dp91
S'range'
p92
(lp93
I0
aI10
asS'lastIncrement'
p94
I0
sS'level'
p95
(lp96
I0
aI0
asssg17
g85
sg18
Vk p
p97
sbsVNieuwe-Ussser-0
p98
g2
(g3
g4
Ntp99
Rp100
(dp101
g8
(dp102
S'+'
p103
(dp104
S'range'
p105
(lp106
I0
aI10
asS'lastIncrement'
p107
I0
sS'level'
p108
(lp109
I0
aI0
asssg17
g98
sg18
VNieuwe Ussser
p110
sbsVik-hoi-0
p111
g2
(g3
g4
Ntp112
Rp113
(dp114
g8
(dp115
S'+'
p116
(dp117
S'range'
p118
(lp119
I0
aI10
asS'lastIncrement'
p120
I1
sS'level'
p121
(lp122
I1
aI1
asssg17
g111
sg18
Vik hoi
p123
sbsVik-ik-1
p124
g2
(g3
g4
Ntp125
Rp126
(dp127
g8
(dp128
S'+'
p129
(dp130
S'range'
p131
(lp132
I0
aI10
asS'lastIncrement'
p133
I0
sS'level'
p134
(lp135
I0
aI0
asssg17
g124
sg18
Vik ik
p136
sbsVik-ik-2
p137
g2
(g3
g4
Ntp138
Rp139
(dp140
g8
(dp141
S'+'
p142
(dp143
S'range'
p144
(lp145
I0
aI10
asS'lastIncrement'
p146
I0
sS'level'
p147
(lp148
I0
aI0
asssg17
g137
sg18
Vik ik
p149
sbsVNew-Newwew-0
p150
g2
(g3
g4
Ntp151
Rp152
(dp153
g8
(dp154
S'+'
p155
(dp156
S'range'
p157
(lp158
I0
aI10
asS'lastIncrement'
p159
I0
sS'level'
p160
(lp161
I0
aI0
asssg17
g150
sg18
VNew Newwew
p162
sbsVTirza-Soute-0
p163
g2
(g3
g4
Ntp164
Rp165
(dp166
g8
(dp167
S'+'
p168
(dp169
S'range'
p170
(lp171
I0
aI10
asS'lastIncrement'
p172
I46
sS'level'
p173
(lp174
I45
aI46
assS'-'
p175
(dp176
S'range'
p177
(lp178
I0
aI10
asS'lastIncrement'
p179
I8
sS'level'
p180
(lp181
I8
aI8
asssg17
g163
sg18
VTirza Soute
p182
sbsS'Nieuwe-User-5'
p183
g2
(g3
g4
Ntp184
Rp185
(dp186
g8
(dp187
S'+'
p188
(dp189
S'range'
p190
(lp191
I0
aI10
asS'lastIncrement'
p192
I0
sS'level'
p193
(lp194
I0
aI0
asssg17
g183
sg18
S'Nieuwe User'
p195
sbsS'Nieuwe-User-4'
p196
g2
(g3
g4
Ntp197
Rp198
(dp199
g8
(dp200
S'+'
p201
(dp202
S'range'
p203
(lp204
I0
aI10
asS'lastIncrement'
p205
I0
sS'level'
p206
(lp207
I0
aI0
asssg17
g196
sg18
S'Nieuwe User'
p208
sbsS'Nieuwe-User-7'
p209
g2
(g3
g4
Ntp210
Rp211
(dp212
g8
(dp213
S'+'
p214
(dp215
S'range'
p216
(lp217
I0
aI10
asS'lastIncrement'
p218
I0
sS'level'
p219
(lp220
I0
aI0
asssg17
g209
sg18
S'Nieuwe User'
p221
sbsS'Nieuwe-User-6'
p222
g2
(g3
g4
Ntp223
Rp224
(dp225
g8
(dp226
S'+'
p227
(dp228
S'range'
p229
(lp230
I0
aI10
asS'lastIncrement'
p231
I0
sS'level'
p232
(lp233
I0
aI0
asssg17
g222
sg18
S'Nieuwe User'
p234
sbsS'Nieuwe-User-1'
p235
g2
(g3
g4
Ntp236
Rp237
(dp238
g8
(dp239
S'+'
p240
(dp241
S'range'
p242
(lp243
I0
aI10
asS'lastIncrement'
p244
I0
sS'level'
p245
(lp246
I0
aI0
asssg17
g235
sg18
S'Nieuwe User'
p247
sbsVNieuwe-User-0
p248
g2
(g3
g4
Ntp249
Rp250
(dp251
g8
(dp252
S'+'
p253
(dp254
S'range'
p255
(lp256
I0
aI10
asS'lastIncrement'
p257
I0
sS'level'
p258
(lp259
I0
aI0
asssg17
g248
sg18
VNieuwe User
p260
sbsS'Nieuwe-User-3'
p261
g2
(g3
g4
Ntp262
Rp263
(dp264
g8
(dp265
S'+'
p266
(dp267
S'range'
p268
(lp269
I0
aI10
asS'lastIncrement'
p270
I0
sS'level'
p271
(lp272
I0
aI0
asssg17
g261
sg18
S'Nieuwe User'
p273
sbsS'Nieuwe-User-2'
p274
g2
(g3
g4
Ntp275
Rp276
(dp277
g8
(dp278
S'+'
p279
(dp280
S'range'
p281
(lp282
I0
aI10
asS'lastIncrement'
p283
I0
sS'level'
p284
(lp285
I0
aI0
asssg17
g274
sg18
S'Nieuwe User'
p286
sbsS'Nieuwe-User-9'
p287
g2
(g3
g4
Ntp288
Rp289
(dp290
g8
(dp291
S'+'
p292
(dp293
S'range'
p294
(lp295
I0
aI10
asS'lastIncrement'
p296
I0
sS'level'
p297
(lp298
I0
aI0
asssg17
g287
sg18
S'Nieuwe User'
p299
sbsVikkk-ik-0
p300
g2
(g3
g4
Ntp301
Rp302
(dp303
g8
(dp304
S'+'
p305
(dp306
S'range'
p307
(lp308
I0
aI10
asS'lastIncrement'
p309
I0
sS'level'
p310
(lp311
I0
aI0
asssg17
g300
sg18
Vikkk ik
p312
sbsS'Hallo-Hallo-0'
p313
g2
(g3
g4
Ntp314
Rp315
(dp316
g8
(dp317
S'+'
p318
(dp319
S'range'
p320
(lp321
I0
aI10
asS'lastIncrement'
p322
I0
sS'level'
p323
(lp324
I0
aI0
asssg17
g313
sg18
S'Hallo Hallo'
p325
sbsS'Nieuwe-User-15'
p326
g2
(g3
g4
Ntp327
Rp328
(dp329
g8
(dp330
S'+'
p331
(dp332
S'range'
p333
(lp334
I0
aI10
asS'lastIncrement'
p335
I0
sS'level'
p336
(lp337
I0
aI0
asssg17
g326
sg18
S'Nieuwe User'
p338
sbsS'Nieuwe-User-14'
p339
g2
(g3
g4
Ntp340
Rp341
(dp342
g8
(dp343
S'+'
p344
(dp345
S'range'
p346
(lp347
I0
aI10
asS'lastIncrement'
p348
I0
sS'level'
p349
(lp350
I0
aI0
asssg17
g339
sg18
S'Nieuwe User'
p351
sbsS'Nieuwe-User-16'
p352
g2
(g3
g4
Ntp353
Rp354
(dp355
g8
(dp356
S'+'
p357
(dp358
S'range'
p359
(lp360
I0
aI10
asS'lastIncrement'
p361
I0
sS'level'
p362
(lp363
I0
aI0
asssg17
g352
sg18
S'Nieuwe User'
p364
sbsS'Nieuwe-User-11'
p365
g2
(g3
g4
Ntp366
Rp367
(dp368
g8
(dp369
S'+'
p370
(dp371
S'range'
p372
(lp373
I0
aI10
asS'lastIncrement'
p374
I0
sS'level'
p375
(lp376
I0
aI0
asssg17
g365
sg18
S'Nieuwe User'
p377
sbsS'Nieuwe-User-10'
p378
g2
(g3
g4
Ntp379
Rp380
(dp381
g8
(dp382
S'+'
p383
(dp384
S'range'
p385
(lp386
I0
aI10
asS'lastIncrement'
p387
I0
sS'level'
p388
(lp389
I0
aI0
asssg17
g378
sg18
S'Nieuwe User'
p390
sbsS'Nieuwe-User-12'
p391
g2
(g3
g4
Ntp392
Rp393
(dp394
g8
(dp395
S'+'
p396
(dp397
S'range'
p398
(lp399
I0
aI10
asS'lastIncrement'
p400
I0
sS'level'
p401
(lp402
I0
aI0
asssg17
g391
sg18
S'Nieuwe User'
p403
sbs.