(dp0
S'tirza-soutehaha-14'
p1
ccopy_reg
_reconstructor
p2
(cStudent
Student
p3
c__builtin__
object
p4
Ntp5
Rp6
(dp7
S'operators'
p8
(dp9
S'+'
p10
(lp11
I0
aI0
asS'-'
p12
(lp13
I0
aI0
assS'studentID'
p14
g1
sS'name'
p15
S'tirza soutehaha'
p16
sS'val_range'
p17
(lp18
I0
aI10
asbscnumpy.core.multiarray
scalar
p19
(cnumpy
dtype
p20
(S'S13'
p21
I0
I1
tp22
Rp23
(I3
S'|'
p24
NNNI13
I1
I0
tp25
bS'tirza-soute-0'
p26
tp27
Rp28
g2
(g3
g4
Ntp29
Rp30
(dp31
g8
(dp32
S'+'
p33
(lp34
I6
aI6
asS'-'
p35
(lp36
I6
aI6
assg14
g19
(g20
(S'S13'
p37
I0
I1
tp38
Rp39
(I3
S'|'
p40
NNNI13
I1
I0
tp41
bS'tirza-soute-0'
p42
tp43
Rp44
sg15
S' '
p45
sg17
(lp46
I0
aI10
asbsVtest-test-0
p47
g2
(g3
g4
Ntp48
Rp49
(dp50
g8
(dp51
S'+'
p52
(lp53
I0
aI0
asS'-'
p54
(lp55
I0
aI0
assg14
g47
sg15
Vtest test
p56
sg17
(lp57
I0
aI10
asbsS'0'
p58
g2
(g3
g4
Ntp59
Rp60
(dp61
g8
(dp62
S'+'
p63
(lp64
I2
aI2
asS'-'
p65
(lp66
I0
aI0
assg14
S'0'
p67
sg15
S'tirza'
p68
sg17
(lp69
I0
aI10
asbsS'_unknown'
p70
g2
(g3
g4
Ntp71
Rp72
(dp73
g8
(dp74
S'+'
p75
(lp76
I1
aI1
asS'-'
p77
(lp78
I0
aI0
assg14
S'_unknown'
p79
sg15
S' '
p80
sg17
(lp81
I0
aI10
asbsg19
(g20
(S'S17'
p82
I0
I1
tp83
Rp84
(I3
S'|'
p85
NNNI17
I1
I0
tp86
bS'caitlin-lagrand-0'
p87
tp88
Rp89
g2
(g3
g4
Ntp90
Rp91
(dp92
g8
(dp93
S'+'
p94
(lp95
I4
aI4
asS'-'
p96
(lp97
I5
aI6
assg14
g19
(g20
(S'S17'
p98
I0
I1
tp99
Rp100
(I3
S'|'
p101
NNNI17
I1
I0
tp102
bS'caitlin-lagrand-0'
p103
tp104
Rp105
sg15
S' '
p106
sg17
(lp107
I0
aI10
asbsg19
(g20
(S'S13'
p108
I0
I1
tp109
Rp110
(I3
S'|'
p111
NNNI13
I1
I0
tp112
bS'leila-talha-0'
p113
tp114
Rp115
g2
(g3
g4
Ntp116
Rp117
(dp118
g8
(dp119
S'+'
p120
(lp121
I0
aI0
asS'-'
p122
(lp123
I0
aI0
assg14
g115
sg15
S' '
p124
sg17
(lp125
I0
aI10
asbsS'tirza-soutehakjsdhasdj-0'
p126
g2
(g3
g4
Ntp127
Rp128
(dp129
g8
(dp130
S'+'
p131
(lp132
I0
aI0
asS'-'
p133
(lp134
I0
aI0
assg14
g126
sg15
S'tirza soutehakjsdhasdj'
p135
sg17
(lp136
I0
aI10
asbs.