(dp0
S'0'
p1
ccopy_reg
_reconstructor
p2
(cStudent
Student
p3
c__builtin__
object
p4
Ntp5
Rp6
(dp7
S'operators'
p8
(dp9
S'+'
p10
(lp11
I2
aI2
asS'-'
p12
(lp13
I0
aI0
assS'studentID'
p14
S'0'
p15
sS'name'
p16
S'tirza'
p17
sS'val_range'
p18
(lp19
I0
aI10
asbscnumpy.core.multiarray
scalar
p20
(cnumpy
dtype
p21
(S'S13'
p22
I0
I1
tp23
Rp24
(I3
S'|'
p25
NNNI13
I1
I0
tp26
bS'tirza-soute-0'
p27
tp28
Rp29
g2
(g3
g4
Ntp30
Rp31
(dp32
g8
(dp33
S'+'
p34
(lp35
I6
aI6
asS'-'
p36
(lp37
I6
aI6
assg14
g20
(g21
(S'S13'
p38
I0
I1
tp39
Rp40
(I3
S'|'
p41
NNNI13
I1
I0
tp42
bS'tirza-soute-0'
p43
tp44
Rp45
sg16
S' '
p46
sg18
(lp47
I0
aI10
asbsS'tirza-soutehaha-14'
p48
g2
(g3
g4
Ntp49
Rp50
(dp51
g8
(dp52
S'+'
p53
(lp54
I0
aI0
asS'-'
p55
(lp56
I0
aI0
assg14
g48
sg16
S'tirza soutehaha'
p57
sg18
(lp58
I0
aI10
asbsS'_unknown'
p59
g2
(g3
g4
Ntp60
Rp61
(dp62
g8
(dp63
S'+'
p64
(lp65
I1
aI1
asS'-'
p66
(lp67
I0
aI0
assg14
S'_unknown'
p68
sg16
S' '
p69
sg18
(lp70
I0
aI10
asbsg20
(g21
(S'S17'
p71
I0
I1
tp72
Rp73
(I3
S'|'
p74
NNNI17
I1
I0
tp75
bS'caitlin-lagrand-0'
p76
tp77
Rp78
g2
(g3
g4
Ntp79
Rp80
(dp81
g8
(dp82
S'+'
p83
(lp84
I4
aI4
asS'-'
p85
(lp86
I5
aI6
assg14
g20
(g21
(S'S17'
p87
I0
I1
tp88
Rp89
(I3
S'|'
p90
NNNI17
I1
I0
tp91
bS'caitlin-lagrand-0'
p92
tp93
Rp94
sg16
S' '
p95
sg18
(lp96
I0
aI10
asbsg20
(g21
(S'S13'
p97
I0
I1
tp98
Rp99
(I3
S'|'
p100
NNNI13
I1
I0
tp101
bS'leila-talha-0'
p102
tp103
Rp104
g2
(g3
g4
Ntp105
Rp106
(dp107
g8
(dp108
S'+'
p109
(lp110
I0
aI0
asS'-'
p111
(lp112
I0
aI0
assg14
g104
sg16
S' '
p113
sg18
(lp114
I0
aI10
asbsS'tirza-soutehakjsdhasdj-0'
p115
g2
(g3
g4
Ntp116
Rp117
(dp118
g8
(dp119
S'+'
p120
(lp121
I0
aI0
asS'-'
p122
(lp123
I0
aI0
assg14
g115
sg16
S'tirza soutehakjsdhasdj'
p124
sg18
(lp125
I0
aI10
asbs.