(dp0
VTirza-Soute-0
p1
ccopy_reg
_reconstructor
p2
(cStudent
Student
p3
c__builtin__
object
p4
Ntp5
Rp6
(dp7
S'operators'
p8
(dp9
S'+'
p10
(dp11
S'range'
p12
(lp13
I0
aI10
asS'lastIncrement'
p14
I44
sS'level'
p15
(lp16
I43
aI44
assS'-'
p17
(dp18
S'range'
p19
(lp20
I0
aI10
asS'lastIncrement'
p21
I0
sS'level'
p22
(lp23
I0
aI0
asssS'studentID'
p24
g1
sS'name'
p25
VTirza Soute
p26
sbs.